; ModuleID = '29/242.c'
source_filename = "29/242.c"
target datalayout = "e-m:e-p270:32:32-p271:32:32-p272:64:64-i64:64-f80:128-n8:16:32:64-S128"
target triple = "x86_64-pc-linux-gnu"

@.str = private unnamed_addr constant [3 x i8] c"%d\00", align 1
@.str.1 = private unnamed_addr constant [7 x i8] c"2.000\0A\00", align 1
@.str.2 = private unnamed_addr constant [7 x i8] c"%.3lf\0A\00", align 1

; Function Attrs: noinline nounwind uwtable
define dso_local i32 @main() #0 {
  %1 = alloca i32, align 4
  %2 = alloca i32, align 4
  %3 = alloca i32, align 4
  %4 = alloca i32, align 4
  %5 = alloca i32, align 4
  %6 = alloca [1000 x i32], align 16
  %7 = alloca [1000 x i32], align 16
  %8 = alloca [1000 x double], align 16
  %9 = alloca double, align 8
  store i32 0, i32* %1, align 4
  store double 0.000000e+00, double* %9, align 8
  %10 = call i32 (i8*, ...) @__isoc99_scanf(i8* getelementptr inbounds ([3 x i8], [3 x i8]* @.str, i64 0, i64 0), i32* %2)
  %11 = getelementptr inbounds [1000 x i32], [1000 x i32]* %6, i64 0, i64 0
  store i32 2, i32* %11, align 16
  %12 = getelementptr inbounds [1000 x i32], [1000 x i32]* %6, i64 0, i64 1
  store i32 3, i32* %12, align 4
  %13 = getelementptr inbounds [1000 x i32], [1000 x i32]* %7, i64 0, i64 0
  store i32 1, i32* %13, align 16
  %14 = getelementptr inbounds [1000 x i32], [1000 x i32]* %7, i64 0, i64 1
  store i32 2, i32* %14, align 4
  %15 = getelementptr inbounds [1000 x i32], [1000 x i32]* %6, i64 0, i64 0
  %16 = load i32, i32* %15, align 16
  %17 = sitofp i32 %16 to double
  %18 = getelementptr inbounds [1000 x i32], [1000 x i32]* %7, i64 0, i64 0
  %19 = load i32, i32* %18, align 16
  %20 = sitofp i32 %19 to double
  %21 = fdiv double %17, %20
  %22 = getelementptr inbounds [1000 x double], [1000 x double]* %8, i64 0, i64 0
  store double %21, double* %22, align 16
  %23 = getelementptr inbounds [1000 x i32], [1000 x i32]* %6, i64 0, i64 1
  %24 = load i32, i32* %23, align 4
  %25 = sitofp i32 %24 to double
  %26 = getelementptr inbounds [1000 x i32], [1000 x i32]* %7, i64 0, i64 1
  %27 = load i32, i32* %26, align 4
  %28 = sitofp i32 %27 to double
  %29 = fdiv double %25, %28
  %30 = getelementptr inbounds [1000 x double], [1000 x double]* %8, i64 0, i64 1
  store double %29, double* %30, align 8
  %31 = getelementptr inbounds [1000 x double], [1000 x double]* %8, i64 0, i64 0
  %32 = load double, double* %31, align 16
  %33 = getelementptr inbounds [1000 x double], [1000 x double]* %8, i64 0, i64 1
  %34 = load double, double* %33, align 8
  %35 = fadd double %32, %34
  store double %35, double* %9, align 8
  store i32 0, i32* %5, align 4
  br label %36

36:                                               ; preds = %116, %0
  %37 = load i32, i32* %5, align 4
  %38 = load i32, i32* %2, align 4
  %39 = icmp slt i32 %37, %38
  br i1 %39, label %40, label %119

40:                                               ; preds = %36
  %41 = call i32 (i8*, ...) @__isoc99_scanf(i8* getelementptr inbounds ([3 x i8], [3 x i8]* @.str, i64 0, i64 0), i32* %4)
  %42 = load i32, i32* %4, align 4
  %43 = icmp eq i32 %42, 1
  br i1 %43, label %44, label %46

44:                                               ; preds = %40
  %45 = call i32 (i8*, ...) @printf(i8* getelementptr inbounds ([7 x i8], [7 x i8]* @.str.1, i64 0, i64 0))
  br label %116

46:                                               ; preds = %40
  %47 = load i32, i32* %4, align 4
  %48 = icmp sgt i32 %47, 1
  br i1 %48, label %49, label %114

49:                                               ; preds = %46
  store i32 2, i32* %3, align 4
  br label %50

50:                                               ; preds = %103, %49
  %51 = load i32, i32* %3, align 4
  %52 = load i32, i32* %4, align 4
  %53 = icmp slt i32 %51, %52
  br i1 %53, label %54, label %106

54:                                               ; preds = %50
  %55 = load i32, i32* %3, align 4
  %56 = sub nsw i32 %55, 1
  %57 = sext i32 %56 to i64
  %58 = getelementptr inbounds [1000 x i32], [1000 x i32]* %6, i64 0, i64 %57
  %59 = load i32, i32* %58, align 4
  %60 = load i32, i32* %3, align 4
  %61 = sub nsw i32 %60, 2
  %62 = sext i32 %61 to i64
  %63 = getelementptr inbounds [1000 x i32], [1000 x i32]* %6, i64 0, i64 %62
  %64 = load i32, i32* %63, align 4
  %65 = add nsw i32 %59, %64
  %66 = load i32, i32* %3, align 4
  %67 = sext i32 %66 to i64
  %68 = getelementptr inbounds [1000 x i32], [1000 x i32]* %6, i64 0, i64 %67
  store i32 %65, i32* %68, align 4
  %69 = load i32, i32* %3, align 4
  %70 = sub nsw i32 %69, 1
  %71 = sext i32 %70 to i64
  %72 = getelementptr inbounds [1000 x i32], [1000 x i32]* %7, i64 0, i64 %71
  %73 = load i32, i32* %72, align 4
  %74 = load i32, i32* %3, align 4
  %75 = sub nsw i32 %74, 2
  %76 = sext i32 %75 to i64
  %77 = getelementptr inbounds [1000 x i32], [1000 x i32]* %7, i64 0, i64 %76
  %78 = load i32, i32* %77, align 4
  %79 = add nsw i32 %73, %78
  %80 = load i32, i32* %3, align 4
  %81 = sext i32 %80 to i64
  %82 = getelementptr inbounds [1000 x i32], [1000 x i32]* %7, i64 0, i64 %81
  store i32 %79, i32* %82, align 4
  %83 = load i32, i32* %3, align 4
  %84 = sext i32 %83 to i64
  %85 = getelementptr inbounds [1000 x i32], [1000 x i32]* %6, i64 0, i64 %84
  %86 = load i32, i32* %85, align 4
  %87 = sitofp i32 %86 to double
  %88 = load i32, i32* %3, align 4
  %89 = sext i32 %88 to i64
  %90 = getelementptr inbounds [1000 x i32], [1000 x i32]* %7, i64 0, i64 %89
  %91 = load i32, i32* %90, align 4
  %92 = sitofp i32 %91 to double
  %93 = fdiv double %87, %92
  %94 = load i32, i32* %3, align 4
  %95 = sext i32 %94 to i64
  %96 = getelementptr inbounds [1000 x double], [1000 x double]* %8, i64 0, i64 %95
  store double %93, double* %96, align 8
  %97 = load double, double* %9, align 8
  %98 = load i32, i32* %3, align 4
  %99 = sext i32 %98 to i64
  %100 = getelementptr inbounds [1000 x double], [1000 x double]* %8, i64 0, i64 %99
  %101 = load double, double* %100, align 8
  %102 = fadd double %97, %101
  store double %102, double* %9, align 8
  br label %103

103:                                              ; preds = %54
  %104 = load i32, i32* %3, align 4
  %105 = add nsw i32 %104, 1
  store i32 %105, i32* %3, align 4
  br label %50

106:                                              ; preds = %50
  %107 = load double, double* %9, align 8
  %108 = call i32 (i8*, ...) @printf(i8* getelementptr inbounds ([7 x i8], [7 x i8]* @.str.2, i64 0, i64 0), double %107)
  %109 = getelementptr inbounds [1000 x double], [1000 x double]* %8, i64 0, i64 0
  %110 = load double, double* %109, align 16
  %111 = getelementptr inbounds [1000 x double], [1000 x double]* %8, i64 0, i64 1
  %112 = load double, double* %111, align 8
  %113 = fadd double %110, %112
  store double %113, double* %9, align 8
  br label %114

114:                                              ; preds = %106, %46
  br label %115

115:                                              ; preds = %114
  br label %116

116:                                              ; preds = %115, %44
  %117 = load i32, i32* %5, align 4
  %118 = add nsw i32 %117, 1
  store i32 %118, i32* %5, align 4
  br label %36

119:                                              ; preds = %36
  ret i32 0
}

declare dso_local i32 @__isoc99_scanf(i8*, ...) #1

declare dso_local i32 @printf(i8*, ...) #1


!llvm.module.flags = !{!0}
!llvm.ident = !{!1}

!0 = !{i32 1, !"wchar_size", i32 4}
!1 = !{!"clang version 10.0.0-4ubuntu1 "}
